target datalayout = "e-m:e-p270:32:32-p271:32:32-p272:64:64-i64:64-i128:128-f80:128-n8:16:32:64-S128"
target triple = "x86_64-pc-linux-gnu"

@.str.12 = private unnamed_addr constant [32 x i8] c"../openssl/crypto/cmp/cmp_asn.c\00", align 1
@__func__.OSSL_CMP_ITAV_push0_stack_item = private unnamed_addr constant [31 x i8] c"OSSL_CMP_ITAV_push0_stack_item\00", align 1

; Function Attrs: inlinehint nounwind uwtable
define internal ptr @ossl_check_OSSL_CMP_ITAV_type(ptr noundef %0) #3 {
  %2 = alloca ptr, align 8
  store ptr %0, ptr %2, align 8, !tbaa !28
  %3 = load ptr, ptr %2, align 8, !tbaa !28
  ret ptr %3
}

; Function Attrs: inlinehint nounwind uwtable
define internal ptr @ossl_check_OSSL_CMP_ITAV_sk_type(ptr noundef %0) #3 {
  %2 = alloca ptr, align 8
  store ptr %0, ptr %2, align 8, !tbaa !61
  %3 = load ptr, ptr %2, align 8, !tbaa !61
  ret ptr %3
}

; Function Attrs: nounwind uwtable
define i32 @OSSL_CMP_ITAV_push0_stack_item(ptr noundef %0, ptr noundef %1) #0 {
  %3 = alloca i32, align 4
  %4 = alloca ptr, align 8
  %5 = alloca ptr, align 8
  %6 = alloca i32, align 4
  %7 = alloca i32, align 4
  store ptr %0, ptr %4, align 8, !tbaa !57
  store ptr %1, ptr %5, align 8, !tbaa !28
  call void @llvm.lifetime.start.p0(i64 4, ptr %6) #4
  store i32 0, ptr %6, align 4, !tbaa !59
  %8 = load ptr, ptr %4, align 8, !tbaa !57
  %9 = icmp eq ptr %8, null
  br i1 %9, label %13, label %10

10:                                               ; preds = %2
  %11 = load ptr, ptr %5, align 8, !tbaa !28
  %12 = icmp eq ptr %11, null
  br i1 %12, label %13, label %14

13:                                               ; preds = %10, %2
  call void @ERR_new()
  call void @ERR_set_debug(ptr noundef @.str.12, i32 noundef 214, ptr noundef @__func__.OSSL_CMP_ITAV_push0_stack_item)
  call void (i32, i32, ptr, ...) @ERR_set_error(i32 noundef 58, i32 noundef 103, ptr noundef null)
  br label %34

14:                                               ; preds = %10
  %15 = load ptr, ptr %4, align 8, !tbaa !57
  %16 = load ptr, ptr %15, align 8, !tbaa !61
  %17 = icmp eq ptr %16, null
  br i1 %17, label %18, label %24

18:                                               ; preds = %14
  %19 = call ptr @OPENSSL_sk_new_null()
  %20 = load ptr, ptr %4, align 8, !tbaa !57
  store ptr %19, ptr %20, align 8, !tbaa !61
  %21 = icmp eq ptr %19, null
  br i1 %21, label %22, label %23

22:                                               ; preds = %18
  br label %34

23:                                               ; preds = %18
  store i32 1, ptr %6, align 4, !tbaa !59
  br label %24

24:                                               ; preds = %23, %14
  %25 = load ptr, ptr %4, align 8, !tbaa !57
  %26 = load ptr, ptr %25, align 8, !tbaa !61
  %27 = call ptr @ossl_check_OSSL_CMP_ITAV_sk_type(ptr noundef %26)
  %28 = load ptr, ptr %5, align 8, !tbaa !28
  %29 = call ptr @ossl_check_OSSL_CMP_ITAV_type(ptr noundef %28)
  %30 = call i32 @OPENSSL_sk_push(ptr noundef %27, ptr noundef %29)
  %31 = icmp ne i32 %30, 0
  br i1 %31, label %33, label %32

32:                                               ; preds = %24
  br label %34

33:                                               ; preds = %24
  store i32 1, ptr %3, align 4
  store i32 1, ptr %7, align 4
  br label %43

34:                                               ; preds = %32, %22, %13
  %35 = load i32, ptr %6, align 4, !tbaa !59
  %36 = icmp ne i32 %35, 0
  br i1 %36, label %37, label %42

37:                                               ; preds = %34
  %38 = load ptr, ptr %4, align 8, !tbaa !57
  %39 = load ptr, ptr %38, align 8, !tbaa !61
  %40 = call ptr @ossl_check_OSSL_CMP_ITAV_sk_type(ptr noundef %39)
  call void @OPENSSL_sk_free(ptr noundef %40)
  %41 = load ptr, ptr %4, align 8, !tbaa !57
  store ptr null, ptr %41, align 8, !tbaa !61
  br label %42

42:                                               ; preds = %37, %34
  store i32 0, ptr %3, align 4
  store i32 1, ptr %7, align 4
  br label %43

43:                                               ; preds = %42, %33
  call void @llvm.lifetime.end.p0(i64 4, ptr %6) #4
  %44 = load i32, ptr %3, align 4
  ret i32 %44
}