; Function Attrs: nounwind uwtable
define range(i32 0, 2) i32 @OSSL_CMP_ITAV_push0_stack_item(ptr noundef captures(address_is_null) %0, ptr noundef %1) local_unnamed_addr #1 {
  %3 = icmp eq ptr %0, null
  %4 = icmp eq ptr %1, null
  %or.cond = or i1 %3, %4
  br i1 %or.cond, label %5, label %6

5:                                                ; preds = %2
  tail call void @ERR_new() #6
  tail call void @ERR_set_debug(ptr noundef nonnull @.str.12, i32 noundef 214, ptr noundef nonnull @__func__.OSSL_CMP_ITAV_push0_stack_item) #6
  tail call void (i32, i32, ptr, ...) @ERR_set_error(i32 noundef 58, i32 noundef 103, ptr noundef null) #6
  br label %.thread

6:                                                ; preds = %2
  %7 = load ptr, ptr %0, align 8, !tbaa !10
  %.not16 = icmp ne ptr %7, null
  br i1 %.not16, label %11, label %8

8:                                                ; preds = %6
  %9 = tail call ptr @OPENSSL_sk_new_null() #6
  store ptr %9, ptr %0, align 8, !tbaa !10
  %10 = icmp eq ptr %9, null
  br i1 %10, label %.thread, label %11

11:                                               ; preds = %8, %6
  %12 = phi ptr [ %9, %8 ], [ %7, %6 ]
  %13 = tail call i32 @OPENSSL_sk_push(ptr noundef nonnull %12, ptr noundef nonnull %1) #6
  %.not = icmp ne i32 %13, 0
  %brmerge = or i1 %.not16, %.not
  %.mux = zext i1 %.not to i32
  br i1 %brmerge, label %.thread, label %14

14:                                               ; preds = %11
  %15 = load ptr, ptr %0, align 8, !tbaa !10
  tail call void @OPENSSL_sk_free(ptr noundef %15) #6
  store ptr null, ptr %0, align 8, !tbaa !10
  br label %.thread

.thread:                                          ; preds = %11, %8, %5, %14
  %.010 = phi i32 [ %.mux, %11 ], [ 0, %14 ], [ 0, %5 ], [ 0, %8 ]
  ret i32 %.010
}